target datalayout = "e-m:e-p270:32:32-p271:32:32-p272:64:64-i64:64-i128:128-f80:128-n8:16:32:64-S128"
target triple = "x86_64-unknown-linux-gnu"

%"class.std::basic_string_view" = type { i64, ptr }
%"class.std::__cxx11::basic_string" = type { %"struct.std::__cxx11::basic_string<char>::_Alloc_hider", i64, %union.anon }
%"struct.std::__cxx11::basic_string<char>::_Alloc_hider" = type { ptr }
%union.anon = type { i64, [8 x i8] }

; Function Attrs: mustprogress nounwind uwtable
define linkonce_odr hidden noundef nonnull align 1 dereferenceable(1) ptr @_ZNKSt17basic_string_viewIcSt11char_traitsIcEEixEm(ptr noundef nonnull align 8 dereferenceable(16) %this, i64 noundef %__pos) #5 comdat align 2 {
entry:
  %this.addr = alloca ptr, align 8
  %__pos.addr = alloca i64, align 8
  store ptr %this, ptr %this.addr, align 8
  store i64 %__pos, ptr %__pos.addr, align 8
  %this1 = load ptr, ptr %this.addr, align 8
  br label %do.body

do.body:                                          ; preds = %entry
  br label %do.cond

do.cond:                                          ; preds = %do.body
  br label %do.end

do.end:                                           ; preds = %do.cond
  %_M_str = getelementptr inbounds %"class.std::basic_string_view", ptr %this1, i32 0, i32 1
  %0 = load ptr, ptr %_M_str, align 8
  %1 = load i64, ptr %__pos.addr, align 8
  %add.ptr = getelementptr inbounds i8, ptr %0, i64 %1
  ret ptr %add.ptr
}

; Function Attrs: mustprogress nounwind uwtable
define linkonce_odr hidden noundef i64 @_ZNKSt17basic_string_viewIcSt11char_traitsIcEE4sizeEv(ptr noundef nonnull align 8 dereferenceable(16) %this) #5 comdat align 2 {
entry:
  %this.addr = alloca ptr, align 8
  store ptr %this, ptr %this.addr, align 8
  %this1 = load ptr, ptr %this.addr, align 8
  %_M_len = getelementptr inbounds %"class.std::basic_string_view", ptr %this1, i32 0, i32 0
  %0 = load i64, ptr %_M_len, align 8
  ret i64 %0
}

; Function Attrs: mustprogress uwtable
define hidden void @_ZN6google8protobuf8compiler3cpp22UnderscoresToCamelCaseB5cxx11ESt17basic_string_viewIcSt11char_traitsIcEEb(ptr noalias sret(%"class.std::__cxx11::basic_string") align 8 %agg.result, i64 %input.coerce0, ptr %input.coerce1, i1 noundef zeroext %cap_next_letter) #4 personality ptr @__gxx_personality_v0 {
entry:
  %result.ptr = alloca ptr, align 8
  %input = alloca %"class.std::basic_string_view", align 8
  %cap_next_letter.addr = alloca i8, align 1
  %nrvo = alloca i1, align 1
  %i = alloca i32, align 4
  %exn.slot = alloca ptr, align 8
  %ehselector.slot = alloca i32, align 4
  store ptr %agg.result, ptr %result.ptr, align 8
  %0 = getelementptr inbounds { i64, ptr }, ptr %input, i32 0, i32 0
  store i64 %input.coerce0, ptr %0, align 8
  %1 = getelementptr inbounds { i64, ptr }, ptr %input, i32 0, i32 1
  store ptr %input.coerce1, ptr %1, align 8
  %frombool = zext i1 %cap_next_letter to i8
  store i8 %frombool, ptr %cap_next_letter.addr, align 1
  store i1 false, ptr %nrvo, align 1
  call void @_ZNSt7__cxx1112basic_stringIcSt11char_traitsIcESaIcEEC1Ev(ptr noundef nonnull align 8 dereferenceable(32) %agg.result) #3
  store i32 0, ptr %i, align 4
  br label %for.cond

for.cond:                                         ; preds = %for.inc, %entry
  %2 = load i32, ptr %i, align 4
  %conv = sext i32 %2 to i64
  %call = call noundef i64 @_ZNKSt17basic_string_viewIcSt11char_traitsIcEE4sizeEv(ptr noundef nonnull align 8 dereferenceable(16) %input) #3
  %cmp = icmp ult i64 %conv, %call
  br i1 %cmp, label %for.body, label %for.end

for.body:                                         ; preds = %for.cond
  %3 = load i32, ptr %i, align 4
  %conv1 = sext i32 %3 to i64
  %call2 = call noundef nonnull align 1 dereferenceable(1) ptr @_ZNKSt17basic_string_viewIcSt11char_traitsIcEEixEm(ptr noundef nonnull align 8 dereferenceable(16) %input, i64 noundef %conv1) #3
  %4 = load i8, ptr %call2, align 1
  %conv3 = sext i8 %4 to i32
  %cmp4 = icmp sle i32 97, %conv3
  br i1 %cmp4, label %land.lhs.true, label %if.else19

land.lhs.true:                                    ; preds = %for.body
  %5 = load i32, ptr %i, align 4
  %conv5 = sext i32 %5 to i64
  %call6 = call noundef nonnull align 1 dereferenceable(1) ptr @_ZNKSt17basic_string_viewIcSt11char_traitsIcEEixEm(ptr noundef nonnull align 8 dereferenceable(16) %input, i64 noundef %conv5) #3
  %6 = load i8, ptr %call6, align 1
  %conv7 = sext i8 %6 to i32
  %cmp8 = icmp sle i32 %conv7, 122
  br i1 %cmp8, label %if.then, label %if.else19

if.then:                                          ; preds = %land.lhs.true
  %7 = load i8, ptr %cap_next_letter.addr, align 1
  %tobool = trunc i8 %7 to i1
  br i1 %tobool, label %if.then9, label %if.else

if.then9:                                         ; preds = %if.then
  %8 = load i32, ptr %i, align 4
  %conv10 = sext i32 %8 to i64
  %call11 = call noundef nonnull align 1 dereferenceable(1) ptr @_ZNKSt17basic_string_viewIcSt11char_traitsIcEEixEm(ptr noundef nonnull align 8 dereferenceable(16) %input, i64 noundef %conv10) #3
  %9 = load i8, ptr %call11, align 1
  %conv12 = sext i8 %9 to i32
  %add = add nsw i32 %conv12, -32
  %conv13 = trunc i32 %add to i8
  %call14 = invoke noundef nonnull align 8 dereferenceable(32) ptr @_ZNSt7__cxx1112basic_stringIcSt11char_traitsIcESaIcEEpLEc(ptr noundef nonnull align 8 dereferenceable(32) %agg.result, i8 noundef signext %conv13)
          to label %invoke.cont unwind label %lpad

invoke.cont:                                      ; preds = %if.then9
  br label %if.end

lpad:                                             ; preds = %if.then44, %if.then29, %if.else, %if.then9
  %10 = landingpad { ptr, i32 }
          cleanup
  %11 = extractvalue { ptr, i32 } %10, 0
  store ptr %11, ptr %exn.slot, align 8
  %12 = extractvalue { ptr, i32 } %10, 1
  store i32 %12, ptr %ehselector.slot, align 4
  call void @_ZNSt7__cxx1112basic_stringIcSt11char_traitsIcESaIcEED1Ev(ptr noundef nonnull align 8 dereferenceable(32) %agg.result) #3
  br label %eh.resume

if.else:                                          ; preds = %if.then
  %13 = load i32, ptr %i, align 4
  %conv15 = sext i32 %13 to i64
  %call16 = call noundef nonnull align 1 dereferenceable(1) ptr @_ZNKSt17basic_string_viewIcSt11char_traitsIcEEixEm(ptr noundef nonnull align 8 dereferenceable(16) %input, i64 noundef %conv15) #3
  %14 = load i8, ptr %call16, align 1
  %call18 = invoke noundef nonnull align 8 dereferenceable(32) ptr @_ZNSt7__cxx1112basic_stringIcSt11char_traitsIcESaIcEEpLEc(ptr noundef nonnull align 8 dereferenceable(32) %agg.result, i8 noundef signext %14)
          to label %invoke.cont17 unwind label %lpad

invoke.cont17:                                    ; preds = %if.else
  br label %if.end

if.end:                                           ; preds = %invoke.cont17, %invoke.cont
  store i8 0, ptr %cap_next_letter.addr, align 1
  br label %if.end52

if.else19:                                        ; preds = %land.lhs.true, %for.body
  %15 = load i32, ptr %i, align 4
  %conv20 = sext i32 %15 to i64
  %call21 = call noundef nonnull align 1 dereferenceable(1) ptr @_ZNKSt17basic_string_viewIcSt11char_traitsIcEEixEm(ptr noundef nonnull align 8 dereferenceable(16) %input, i64 noundef %conv20) #3
  %16 = load i8, ptr %call21, align 1
  %conv22 = sext i8 %16 to i32
  %cmp23 = icmp sle i32 65, %conv22
  br i1 %cmp23, label %land.lhs.true24, label %if.else34

land.lhs.true24:                                  ; preds = %if.else19
  %17 = load i32, ptr %i, align 4
  %conv25 = sext i32 %17 to i64
  %call26 = call noundef nonnull align 1 dereferenceable(1) ptr @_ZNKSt17basic_string_viewIcSt11char_traitsIcEEixEm(ptr noundef nonnull align 8 dereferenceable(16) %input, i64 noundef %conv25) #3
  %18 = load i8, ptr %call26, align 1
  %conv27 = sext i8 %18 to i32
  %cmp28 = icmp sle i32 %conv27, 90
  br i1 %cmp28, label %if.then29, label %if.else34

if.then29:                                        ; preds = %land.lhs.true24
  %19 = load i32, ptr %i, align 4
  %conv30 = sext i32 %19 to i64
  %call31 = call noundef nonnull align 1 dereferenceable(1) ptr @_ZNKSt17basic_string_viewIcSt11char_traitsIcEEixEm(ptr noundef nonnull align 8 dereferenceable(16) %input, i64 noundef %conv30) #3
  %20 = load i8, ptr %call31, align 1
  %call33 = invoke noundef nonnull align 8 dereferenceable(32) ptr @_ZNSt7__cxx1112basic_stringIcSt11char_traitsIcESaIcEEpLEc(ptr noundef nonnull align 8 dereferenceable(32) %agg.result, i8 noundef signext %20)
          to label %invoke.cont32 unwind label %lpad

invoke.cont32:                                    ; preds = %if.then29
  store i8 0, ptr %cap_next_letter.addr, align 1
  br label %if.end51

if.else34:                                        ; preds = %land.lhs.true24, %if.else19
  %21 = load i32, ptr %i, align 4
  %conv35 = sext i32 %21 to i64
  %call36 = call noundef nonnull align 1 dereferenceable(1) ptr @_ZNKSt17basic_string_viewIcSt11char_traitsIcEEixEm(ptr noundef nonnull align 8 dereferenceable(16) %input, i64 noundef %conv35) #3
  %22 = load i8, ptr %call36, align 1
  %conv37 = sext i8 %22 to i32
  %cmp38 = icmp sle i32 48, %conv37
  br i1 %cmp38, label %land.lhs.true39, label %if.else49

land.lhs.true39:                                  ; preds = %if.else34
  %23 = load i32, ptr %i, align 4
  %conv40 = sext i32 %23 to i64
  %call41 = call noundef nonnull align 1 dereferenceable(1) ptr @_ZNKSt17basic_string_viewIcSt11char_traitsIcEEixEm(ptr noundef nonnull align 8 dereferenceable(16) %input, i64 noundef %conv40) #3
  %24 = load i8, ptr %call41, align 1
  %conv42 = sext i8 %24 to i32
  %cmp43 = icmp sle i32 %conv42, 57
  br i1 %cmp43, label %if.then44, label %if.else49

if.then44:                                        ; preds = %land.lhs.true39
  %25 = load i32, ptr %i, align 4
  %conv45 = sext i32 %25 to i64
  %call46 = call noundef nonnull align 1 dereferenceable(1) ptr @_ZNKSt17basic_string_viewIcSt11char_traitsIcEEixEm(ptr noundef nonnull align 8 dereferenceable(16) %input, i64 noundef %conv45) #3
  %26 = load i8, ptr %call46, align 1
  %call48 = invoke noundef nonnull align 8 dereferenceable(32) ptr @_ZNSt7__cxx1112basic_stringIcSt11char_traitsIcESaIcEEpLEc(ptr noundef nonnull align 8 dereferenceable(32) %agg.result, i8 noundef signext %26)
          to label %invoke.cont47 unwind label %lpad

invoke.cont47:                                    ; preds = %if.then44
  store i8 1, ptr %cap_next_letter.addr, align 1
  br label %if.end50

if.else49:                                        ; preds = %land.lhs.true39, %if.else34
  store i8 1, ptr %cap_next_letter.addr, align 1
  br label %if.end50

if.end50:                                         ; preds = %if.else49, %invoke.cont47
  br label %if.end51

if.end51:                                         ; preds = %if.end50, %invoke.cont32
  br label %if.end52

if.end52:                                         ; preds = %if.end51, %if.end
  br label %for.inc

for.inc:                                          ; preds = %if.end52
  %27 = load i32, ptr %i, align 4
  %inc = add nsw i32 %27, 1
  store i32 %inc, ptr %i, align 4
  br label %for.cond, !llvm.loop !4

for.end:                                          ; preds = %for.cond
  store i1 true, ptr %nrvo, align 1
  %nrvo.val = load i1, ptr %nrvo, align 1
  br i1 %nrvo.val, label %nrvo.skipdtor, label %nrvo.unused

nrvo.unused:                                      ; preds = %for.end
  call void @_ZNSt7__cxx1112basic_stringIcSt11char_traitsIcESaIcEED1Ev(ptr noundef nonnull align 8 dereferenceable(32) %agg.result) #3
  br label %nrvo.skipdtor

nrvo.skipdtor:                                    ; preds = %nrvo.unused, %for.end
  ret void

eh.resume:                                        ; preds = %lpad
  %exn = load ptr, ptr %exn.slot, align 8
  %sel = load i32, ptr %ehselector.slot, align 4
  %lpad.val = insertvalue { ptr, i32 } poison, ptr %exn, 0
  %lpad.val53 = insertvalue { ptr, i32 } %lpad.val, i32 %sel, 1
  resume { ptr, i32 } %lpad.val53
}