; Function Attrs: mustprogress uwtable
define hidden void @_ZN6google8protobuf8compiler3cpp22UnderscoresToCamelCaseB5cxx11ESt17basic_string_viewIcSt11char_traitsIcEEb(ptr noalias nonnull sret(%"class.std::__cxx11::basic_string") align 8 %agg.result, i64 %input.coerce0, ptr nocapture readonly %input.coerce1, i1 noundef zeroext %cap_next_letter) local_unnamed_addr #4 personality ptr @__gxx_personality_v0 {
entry:
  tail call void @_ZNSt7__cxx1112basic_stringIcSt11char_traitsIcESaIcEEC1Ev(ptr noundef nonnull align 8 dereferenceable(32) %agg.result) #26
  %cmp43.not = icmp eq i64 %input.coerce0, 0
  br i1 %cmp43.not, label %nrvo.skipdtor, label %for.body

for.body:                                         ; preds = %entry, %for.inc
  %indvars.iv = phi i64 [ %indvars.iv.next, %for.inc ], [ 0, %entry ]
  %cap_next_letter.addr.045 = phi i1 [ %cap_next_letter.addr.1, %for.inc ], [ %cap_next_letter, %entry ]
  %add.ptr.i = getelementptr inbounds i8, ptr %input.coerce1, i64 %indvars.iv
  %0 = load i8, ptr %add.ptr.i, align 1
  %cmp4 = icmp sgt i8 %0, 96
  br i1 %cmp4, label %land.lhs.true, label %if.else19

land.lhs.true:                                    ; preds = %for.body
  %cmp8 = icmp ult i8 %0, 123
  br i1 %cmp8, label %if.then, label %for.inc

if.then:                                          ; preds = %land.lhs.true
  %add = add nsw i8 %0, -32
  %spec.select = select i1 %cap_next_letter.addr.045, i8 %add, i8 %0
  br label %if.then29.invoke

lpad:                                             ; preds = %if.then29.invoke, %if.then44
  %1 = landingpad { ptr, i32 }
          cleanup
  tail call void @_ZNSt7__cxx1112basic_stringIcSt11char_traitsIcESaIcEED1Ev(ptr noundef nonnull align 8 dereferenceable(32) %agg.result) #26
  resume { ptr, i32 } %1

if.else19:                                        ; preds = %for.body
  %cmp23 = icmp sgt i8 %0, 64
  br i1 %cmp23, label %land.lhs.true24, label %if.else34

land.lhs.true24:                                  ; preds = %if.else19
  %cmp28 = icmp ult i8 %0, 91
  br i1 %cmp28, label %if.then29.invoke, label %for.inc

if.then29.invoke:                                 ; preds = %if.then, %land.lhs.true24
  %2 = phi i8 [ %0, %land.lhs.true24 ], [ %spec.select, %if.then ]
  %3 = invoke noundef nonnull align 8 dereferenceable(32) ptr @_ZNSt7__cxx1112basic_stringIcSt11char_traitsIcESaIcEEpLEc(ptr noundef nonnull align 8 dereferenceable(32) %agg.result, i8 noundef signext %2)
          to label %for.inc unwind label %lpad

if.else34:                                        ; preds = %if.else19
  %4 = add i8 %0, -48
  %or.cond = icmp ult i8 %4, 10
  br i1 %or.cond, label %if.then44, label %for.inc

if.then44:                                        ; preds = %if.else34
  %call48 = invoke noundef nonnull align 8 dereferenceable(32) ptr @_ZNSt7__cxx1112basic_stringIcSt11char_traitsIcESaIcEEpLEc(ptr noundef nonnull align 8 dereferenceable(32) %agg.result, i8 noundef signext %0)
          to label %for.inc unwind label %lpad

for.inc:                                          ; preds = %if.then29.invoke, %land.lhs.true24, %land.lhs.true, %if.else34, %if.then44
  %cap_next_letter.addr.1 = phi i1 [ true, %if.then44 ], [ true, %if.else34 ], [ true, %land.lhs.true ], [ true, %land.lhs.true24 ], [ false, %if.then29.invoke ]
  %indvars.iv.next = add nuw i64 %indvars.iv, 1
  %exitcond.not = icmp eq i64 %indvars.iv.next, %input.coerce0
  br i1 %exitcond.not, label %nrvo.skipdtor, label %for.body, !llvm.loop !53

nrvo.skipdtor:                                    ; preds = %for.inc, %entry
  ret void
}